; Function Attrs: nounwind uwtable
define internal noundef i32 @_list_copy_coord(ptr noundef readonly captures(none) %0, ptr noundef captures(none) %1) #0 {
  %3 = tail call ptr @slurm_xcalloc(i64 noundef 1, i64 noundef 16, i1 noundef zeroext true, i1 noundef zeroext false, ptr noundef nonnull @.str.2, i32 noundef 586, ptr noundef nonnull @__func__._list_copy_coord) #19
  %4 = load ptr, ptr %1, align 8
  %.not = icmp eq ptr %4, null
  br i1 %.not, label %5, label %7

5:                                                ; preds = %2
  %6 = tail call ptr @list_create(ptr noundef nonnull @slurmdb_destroy_coord_rec) #19
  store ptr %6, ptr %1, align 8
  br label %7

7:                                                ; preds = %5, %2
  %8 = phi ptr [ %6, %5 ], [ %4, %2 ]
  tail call void @list_append(ptr noundef %8, ptr noundef %3) #19
  %9 = load ptr, ptr %0, align 8
  %10 = tail call ptr @xstrdup(ptr noundef %9) #19
  store ptr %10, ptr %3, align 8
  %11 = getelementptr inbounds nuw i8, ptr %0, i64 8
  %12 = load i16, ptr %11, align 8
  %13 = getelementptr inbounds nuw i8, ptr %3, i64 8
  store i16 %12, ptr %13, align 8
  ret i32 0
}